target datalayout = "e-m:e-p270:32:32-p271:32:32-p272:64:64-i64:64-i128:128-f80:128-n8:16:32:64-S128"
target triple = "x86_64-pc-linux-gnu"

%struct.GtkRequisition = type { i32, i32 }
%struct._GtkWidget = type { %struct.GtkObject, i16, i8, i8, ptr, ptr, %struct.GtkRequisition, %struct.GtkAllocation, ptr, ptr }
%struct.GtkObject = type { %struct.GObject, i32 }
%struct.GObject = type { %struct.GTypeInstance, i32, ptr }
%struct.GTypeInstance = type { ptr }
%struct.GtkAllocation = type { i32, i32, i32, i32 }

@fp_gtk_fixed_new = internal global ptr null, align 8
@fp_gtk_window_new = internal global ptr null, align 8
@fp_gtk_container_add = internal global ptr null, align 8
@fp_gtk_widget_realize = internal global ptr null, align 8
@fp_gtk_widget_render_icon = internal global ptr null, align 8
@fp_gtk_widget_set_direction = internal global ptr null, align 8
@gtk2_window = internal global ptr null, align 8
@gtk2_widget = internal global ptr null, align 8
@gtk2_fixed = internal global ptr null, align 8

; Function Attrs: nounwind uwtable
define internal void @init_containers() #0 {
  %1 = load ptr, ptr @gtk2_window, align 8
  %2 = icmp eq ptr %1, null
  br i1 %2, label %3, label %15

3:                                                ; preds = %0
  %4 = load ptr, ptr @fp_gtk_window_new, align 8
  %5 = call ptr %4(i32 noundef 0)
  store ptr %5, ptr @gtk2_window, align 8
  %6 = load ptr, ptr @fp_gtk_fixed_new, align 8
  %7 = call ptr (...) %6()
  store ptr %7, ptr @gtk2_fixed, align 8
  %8 = load ptr, ptr @fp_gtk_container_add, align 8
  %9 = load ptr, ptr @gtk2_window, align 8
  %10 = load ptr, ptr @gtk2_fixed, align 8
  call void %8(ptr noundef %9, ptr noundef %10)
  %11 = load ptr, ptr @fp_gtk_widget_realize, align 8
  %12 = load ptr, ptr @gtk2_window, align 8
  call void %11(ptr noundef %12)
  %13 = load ptr, ptr @fp_gtk_widget_realize, align 8
  %14 = load ptr, ptr @gtk2_fixed, align 8
  call void %13(ptr noundef %14)
  br label %15

15:                                               ; preds = %3, %0
  ret void
}

; Function Attrs: nounwind uwtable
define internal ptr @gtk2_get_stock_icon(i32 noundef %0, ptr noundef %1, i32 noundef %2, i32 noundef %3, ptr noundef %4) #0 {
  %6 = alloca i32, align 4
  %7 = alloca ptr, align 8
  %8 = alloca i32, align 4
  %9 = alloca i32, align 4
  %10 = alloca ptr, align 8
  store i32 %0, ptr %6, align 4
  store ptr %1, ptr %7, align 8
  store i32 %2, ptr %8, align 4
  store i32 %3, ptr %9, align 4
  store ptr %4, ptr %10, align 8
  call void @init_containers()
  %11 = load i32, ptr %6, align 4
  %12 = icmp slt i32 %11, 0
  br i1 %12, label %13, label %14

13:                                               ; preds = %5
  br label %16

14:                                               ; preds = %5
  %15 = load i32, ptr %6, align 4
  br label %16

16:                                               ; preds = %14, %13
  %17 = phi i32 [ 25, %13 ], [ %15, %14 ]
  %18 = call ptr @gtk2_get_widget(i32 noundef %17)
  store ptr %18, ptr @gtk2_widget, align 8
  %19 = load ptr, ptr @gtk2_widget, align 8
  %20 = getelementptr inbounds %struct._GtkWidget, ptr %19, i32 0, i32 2
  store i8 0, ptr %20, align 2
  %21 = load ptr, ptr @fp_gtk_widget_set_direction, align 8
  %22 = load ptr, ptr @gtk2_widget, align 8
  %23 = load i32, ptr %9, align 4
  call void %21(ptr noundef %22, i32 noundef %23)
  %24 = load ptr, ptr @fp_gtk_widget_render_icon, align 8
  %25 = load ptr, ptr @gtk2_widget, align 8
  %26 = load ptr, ptr %7, align 8
  %27 = load i32, ptr %8, align 4
  %28 = load ptr, ptr %10, align 8
  %29 = call ptr %24(ptr noundef %25, ptr noundef %26, i32 noundef %27, ptr noundef %28)
  ret ptr %29
}

; Function Attrs: nounwind uwtable
define internal zeroext i8 @gtk2_get_icon_data(ptr noundef %0, i32 noundef %1, ptr noundef %2, i32 noundef %3, i32 noundef %4, ptr noundef %5, ptr noundef %6, ptr noundef %7) #0 {
  %9 = alloca ptr, align 8
  %10 = alloca i32, align 4
  %11 = alloca ptr, align 8
  %12 = alloca i32, align 4
  %13 = alloca i32, align 4
  %14 = alloca ptr, align 8
  %15 = alloca ptr, align 8
  %16 = alloca ptr, align 8
  %17 = alloca ptr, align 8
  store ptr %0, ptr %9, align 8
  store i32 %1, ptr %10, align 4
  store ptr %2, ptr %11, align 8
  store i32 %3, ptr %12, align 4
  store i32 %4, ptr %13, align 4
  store ptr %5, ptr %14, align 8
  store ptr %6, ptr %15, align 8
  store ptr %7, ptr %16, align 8
  %18 = load i32, ptr %10, align 4
  %19 = load ptr, ptr %11, align 8
  %20 = load i32, ptr %12, align 4
  %21 = load i32, ptr %13, align 4
  %22 = load ptr, ptr %14, align 8
  %23 = call ptr @gtk2_get_stock_icon(i32 noundef %18, ptr noundef %19, i32 noundef %20, i32 noundef %21, ptr noundef %22)
  store ptr %23, ptr %17, align 8
  %24 = load ptr, ptr %9, align 8
  %25 = load ptr, ptr %17, align 8
  %26 = load ptr, ptr %15, align 8
  %27 = load ptr, ptr %16, align 8
  %28 = call zeroext i8 @gtk2_get_pixbuf_data(ptr noundef %24, ptr noundef %25, ptr noundef %26, ptr noundef %27)
  ret i8 %28
}