; Function Attrs: nounwind uwtable
define internal zeroext range(i8 0, 2) i8 @gtk2_get_icon_data(ptr noundef %0, i32 noundef %1, ptr noundef %2, i32 noundef %3, i32 noundef %4, ptr noundef %5, ptr noundef %6, ptr noundef %7) #0 {
  %9 = load ptr, ptr @gtk2_window, align 8
  %10 = icmp eq ptr %9, null
  br i1 %10, label %11, label %gtk2_get_stock_icon.exit

11:                                               ; preds = %8
  %12 = load ptr, ptr @fp_gtk_window_new, align 8
  %13 = tail call ptr %12(i32 noundef 0) #18
  store ptr %13, ptr @gtk2_window, align 8
  %14 = load ptr, ptr @fp_gtk_fixed_new, align 8
  %15 = tail call ptr (...) %14() #18
  store ptr %15, ptr @gtk2_fixed, align 8
  %16 = load ptr, ptr @fp_gtk_container_add, align 8
  %17 = load ptr, ptr @gtk2_window, align 8
  tail call void %16(ptr noundef %17, ptr noundef %15) #18
  %18 = load ptr, ptr @fp_gtk_widget_realize, align 8
  %19 = load ptr, ptr @gtk2_window, align 8
  tail call void %18(ptr noundef %19) #18
  %20 = load ptr, ptr @fp_gtk_widget_realize, align 8
  %21 = load ptr, ptr @gtk2_fixed, align 8
  tail call void %20(ptr noundef %21) #18
  br label %gtk2_get_stock_icon.exit

gtk2_get_stock_icon.exit:                         ; preds = %8, %11
  %22 = icmp slt i32 %1, 0
  %23 = select i1 %22, i32 25, i32 %1
  %24 = tail call fastcc ptr @gtk2_get_widget(i32 noundef %23)
  store ptr %24, ptr @gtk2_widget, align 8
  %25 = getelementptr inbounds i8, ptr %24, i64 34
  store i8 0, ptr %25, align 2
  %26 = load ptr, ptr @fp_gtk_widget_set_direction, align 8
  tail call void %26(ptr noundef %24, i32 noundef %4) #18
  %27 = load ptr, ptr @fp_gtk_widget_render_icon, align 8
  %28 = load ptr, ptr @gtk2_widget, align 8
  %29 = tail call ptr %27(ptr noundef %28, ptr noundef %2, i32 noundef %3, ptr noundef %5) #18
  %30 = tail call fastcc zeroext i8 @gtk2_get_pixbuf_data(ptr noundef %0, ptr noundef %29, ptr noundef %6, ptr noundef %7)
  ret i8 %30
}